; Function Attrs: nounwind uwtable
define i32 @FT_Get_PFR_Kerning(ptr noundef %0, i32 noundef %1, i32 noundef %2, ptr noundef %3) local_unnamed_addr #0 {
  %.not = icmp eq ptr %0, null
  br i1 %.not, label %28, label %5

5:                                                ; preds = %4
  %.not18 = icmp eq ptr %3, null
  br i1 %.not18, label %28, label %6

6:                                                ; preds = %5
  %7 = getelementptr inbounds nuw i8, ptr %0, i64 240
  %8 = load ptr, ptr %7, align 8, !tbaa !3
  %9 = getelementptr inbounds nuw i8, ptr %8, i64 88
  %10 = load ptr, ptr %9, align 8, !tbaa !25
  %magicptr.i = ptrtoint ptr %10 to i64
  switch i64 %magicptr.i, label %ft_pfr_check.exit [
    i64 -2, label %ft_pfr_check.exit.thread
    i64 0, label %11
  ]

11:                                               ; preds = %6
  %12 = getelementptr inbounds nuw i8, ptr %0, i64 176
  %13 = load ptr, ptr %12, align 8, !tbaa !31
  %14 = load ptr, ptr %13, align 8, !tbaa !32
  %15 = getelementptr inbounds nuw i8, ptr %14, i64 64
  %16 = load ptr, ptr %15, align 8, !tbaa !36
  %.not.i = icmp eq ptr %16, null
  br i1 %.not.i, label %19, label %17

17:                                               ; preds = %11
  %18 = tail call ptr %16(ptr noundef nonnull %13, ptr noundef nonnull @.str) #2
  %.pre.i = load ptr, ptr %7, align 8, !tbaa !3
  br label %19

19:                                               ; preds = %17, %11
  %20 = phi ptr [ %.pre.i, %17 ], [ %8, %11 ]
  %.0.i = phi ptr [ %18, %17 ], [ null, %11 ]
  %.not19.i = icmp eq ptr %.0.i, null
  %21 = select i1 %.not19.i, ptr inttoptr (i64 -2 to ptr), ptr %.0.i
  %22 = getelementptr inbounds nuw i8, ptr %20, i64 88
  store ptr %21, ptr %22, align 8, !tbaa !25
  br label %ft_pfr_check.exit

ft_pfr_check.exit:                                ; preds = %6, %19
  %.015.i = phi ptr [ %.0.i, %19 ], [ %10, %6 ]
  %.not19 = icmp eq ptr %.015.i, null
  br i1 %.not19, label %ft_pfr_check.exit.thread, label %23

23:                                               ; preds = %ft_pfr_check.exit
  %24 = getelementptr inbounds nuw i8, ptr %.015.i, i64 8
  %25 = load ptr, ptr %24, align 8, !tbaa !50
  %26 = tail call i32 %25(ptr noundef nonnull %0, i32 noundef %1, i32 noundef %2, ptr noundef nonnull %3) #2
  br label %28

ft_pfr_check.exit.thread:                         ; preds = %6, %ft_pfr_check.exit
  %27 = tail call i32 @FT_Get_Kerning(ptr noundef nonnull %0, i32 noundef %1, i32 noundef %2, i32 noundef 2, ptr noundef nonnull %3) #2
  br label %28

28:                                               ; preds = %23, %ft_pfr_check.exit.thread, %5, %4
  %.0 = phi i32 [ 35, %4 ], [ 6, %5 ], [ %26, %23 ], [ %27, %ft_pfr_check.exit.thread ]
  ret i32 %.0
}